target datalayout = "e-m:e-p270:32:32-p271:32:32-p272:64:64-i64:64-i128:128-f80:128-n8:16:32:64-S128"
target triple = "x86_64-pc-linux-gnu"

%struct.ItemPointerData = type { %struct.BlockIdData, i16 }
%struct.BlockIdData = type { i16, i16 }
%struct.BTScanOpaqueData = type { i8, i32, ptr, i32, i8, i8, i8, ptr, ptr, ptr, ptr, i32, ptr, ptr, i32, %struct.BTScanPosData, %struct.BTScanPosData }
%struct.BTScanPosData = type { i32, i32, i32, i32, i64, i32, i32, i8, i8, i32, i32, i32, [1358 x %struct.BTScanPosItem] }
%struct.BTScanPosItem = type { %struct.ItemPointerData, i16, i16 }
%struct.IndexScanDescData = type { ptr, ptr, ptr, i32, i32, ptr, ptr, i8, i8, i8, i8, i8, ptr, ptr, ptr, ptr, ptr, %struct.ItemPointerData, i8, ptr, i8, ptr, ptr, i8, ptr }

; Function Attrs: nounwind uwtable
define dso_local i64 @btgetbitmap(ptr noundef %0, ptr noundef %1) #0 {
  %3 = alloca ptr, align 8
  %4 = alloca ptr, align 8
  %5 = alloca ptr, align 8
  %6 = alloca i64, align 8
  %7 = alloca ptr, align 8
  store ptr %0, ptr %3, align 8
  store ptr %1, ptr %4, align 8
  call void @llvm.lifetime.start.p0(i64 8, ptr %5) #8
  %8 = load ptr, ptr %3, align 8
  %9 = getelementptr inbounds nuw %struct.IndexScanDescData, ptr %8, i32 0, i32 12
  %10 = load ptr, ptr %9, align 8
  store ptr %10, ptr %5, align 8
  call void @llvm.lifetime.start.p0(i64 8, ptr %6) #8
  store i64 0, ptr %6, align 8
  call void @llvm.lifetime.start.p0(i64 8, ptr %7) #8
  br label %11

11:                                               ; preds = %62, %2
  %12 = load ptr, ptr %3, align 8
  %13 = call zeroext i1 @_bt_first(ptr noundef %12, i32 noundef 1)
  br i1 %13, label %14, label %53

14:                                               ; preds = %11
  %15 = load ptr, ptr %3, align 8
  %16 = getelementptr inbounds nuw %struct.IndexScanDescData, ptr %15, i32 0, i32 17
  store ptr %16, ptr %7, align 8
  %17 = load ptr, ptr %4, align 8
  %18 = load ptr, ptr %7, align 8
  call void @tbm_add_tuples(ptr noundef %17, ptr noundef %18, i32 noundef 1, i1 noundef zeroext false)
  %19 = load i64, ptr %6, align 8
  %20 = add i64 %19, 1
  store i64 %20, ptr %6, align 8
  br label %21

21:                                               ; preds = %37, %14
  %22 = load ptr, ptr %5, align 8
  %23 = getelementptr inbounds nuw %struct.BTScanOpaqueData, ptr %22, i32 0, i32 15
  %24 = getelementptr inbounds nuw %struct.BTScanPosData, ptr %23, i32 0, i32 11
  %25 = load i32, ptr %24, align 4
  %26 = add i32 %25, 1
  store i32 %26, ptr %24, align 4
  %27 = load ptr, ptr %5, align 8
  %28 = getelementptr inbounds nuw %struct.BTScanOpaqueData, ptr %27, i32 0, i32 15
  %29 = getelementptr inbounds nuw %struct.BTScanPosData, ptr %28, i32 0, i32 10
  %30 = load i32, ptr %29, align 8
  %31 = icmp sgt i32 %26, %30
  br i1 %31, label %32, label %37

32:                                               ; preds = %21
  %33 = load ptr, ptr %3, align 8
  %34 = call zeroext i1 @_bt_next(ptr noundef %33, i32 noundef 1)
  br i1 %34, label %36, label %35

35:                                               ; preds = %32
  br label %52

36:                                               ; preds = %32
  br label %37

37:                                               ; preds = %36, %21
  %38 = load ptr, ptr %5, align 8
  %39 = getelementptr inbounds nuw %struct.BTScanOpaqueData, ptr %38, i32 0, i32 15
  %40 = getelementptr inbounds nuw %struct.BTScanPosData, ptr %39, i32 0, i32 12
  %41 = load ptr, ptr %5, align 8
  %42 = getelementptr inbounds nuw %struct.BTScanOpaqueData, ptr %41, i32 0, i32 15
  %43 = getelementptr inbounds nuw %struct.BTScanPosData, ptr %42, i32 0, i32 11
  %44 = load i32, ptr %43, align 4
  %45 = sext i32 %44 to i64
  %46 = getelementptr inbounds [1358 x %struct.BTScanPosItem], ptr %40, i64 0, i64 %45
  %47 = getelementptr inbounds nuw %struct.BTScanPosItem, ptr %46, i32 0, i32 0
  store ptr %47, ptr %7, align 8
  %48 = load ptr, ptr %4, align 8
  %49 = load ptr, ptr %7, align 8
  call void @tbm_add_tuples(ptr noundef %48, ptr noundef %49, i32 noundef 1, i1 noundef zeroext false)
  %50 = load i64, ptr %6, align 8
  %51 = add i64 %50, 1
  store i64 %51, ptr %6, align 8
  br label %21

52:                                               ; preds = %35
  br label %53

53:                                               ; preds = %52, %11
  br label %54

54:                                               ; preds = %53
  %55 = load ptr, ptr %5, align 8
  %56 = getelementptr inbounds nuw %struct.BTScanOpaqueData, ptr %55, i32 0, i32 3
  %57 = load i32, ptr %56, align 8
  %58 = icmp ne i32 %57, 0
  br i1 %58, label %59, label %62

59:                                               ; preds = %54
  %60 = load ptr, ptr %3, align 8
  %61 = call zeroext i1 @_bt_start_prim_scan(ptr noundef %60, i32 noundef 1)
  br label %62

62:                                               ; preds = %59, %54
  %63 = phi i1 [ false, %54 ], [ %61, %59 ]
  br i1 %63, label %11, label %64, !llvm.loop !8

64:                                               ; preds = %62
  %65 = load i64, ptr %6, align 8
  call void @llvm.lifetime.end.p0(i64 8, ptr %7) #8
  call void @llvm.lifetime.end.p0(i64 8, ptr %6) #8
  call void @llvm.lifetime.end.p0(i64 8, ptr %5) #8
  ret i64 %65
}