; Function Attrs: nounwind uwtable
define dso_local i64 @btgetbitmap(ptr noundef %0, ptr noundef %1) #0 {
  %3 = getelementptr inbounds nuw i8, ptr %0, i64 56
  %4 = load ptr, ptr %3, align 8
  %5 = getelementptr inbounds nuw i8, ptr %0, i64 96
  %6 = getelementptr inbounds nuw i8, ptr %4, i64 132
  %7 = getelementptr inbounds nuw i8, ptr %4, i64 128
  %8 = getelementptr inbounds nuw i8, ptr %4, i64 136
  %9 = getelementptr inbounds nuw i8, ptr %4, i64 16
  br label %10

10:                                               ; preds = %23, %2
  %.0 = phi i64 [ 0, %2 ], [ %.2, %23 ]
  %11 = tail call zeroext i1 @_bt_first(ptr noundef %0, i32 noundef 1) #8
  br i1 %11, label %.preheader, label %.loopexit

.preheader:                                       ; preds = %10, %18
  %.sink = phi ptr [ %21, %18 ], [ %5, %10 ]
  %.1.in = phi i64 [ %.1, %18 ], [ %.0, %10 ]
  tail call void @tbm_add_tuples(ptr noundef %1, ptr noundef nonnull %.sink, i32 noundef 1, i1 noundef zeroext false) #8
  %.1 = add i64 %.1.in, 1
  %12 = load i32, ptr %6, align 4
  %13 = add i32 %12, 1
  store i32 %13, ptr %6, align 4
  %14 = load i32, ptr %7, align 8
  %15 = icmp sgt i32 %13, %14
  br i1 %15, label %16, label %18

16:                                               ; preds = %.preheader
  %17 = tail call zeroext i1 @_bt_next(ptr noundef %0, i32 noundef 1) #8
  br i1 %17, label %._crit_edge, label %.loopexit

._crit_edge:                                      ; preds = %16
  %.pre = load i32, ptr %6, align 4
  br label %18

18:                                               ; preds = %._crit_edge, %.preheader
  %19 = phi i32 [ %.pre, %._crit_edge ], [ %13, %.preheader ]
  %20 = sext i32 %19 to i64
  %21 = getelementptr inbounds [1358 x %struct.BTScanPosItem], ptr %8, i64 0, i64 %20
  br label %.preheader

.loopexit:                                        ; preds = %16, %10
  %.2 = phi i64 [ %.0, %10 ], [ %.1, %16 ]
  %22 = load i32, ptr %9, align 8
  %.not = icmp eq i32 %22, 0
  br i1 %.not, label %.critedge, label %23

23:                                               ; preds = %.loopexit
  %24 = tail call zeroext i1 @_bt_start_prim_scan(ptr noundef %0, i32 noundef 1) #8
  br i1 %24, label %10, label %.critedge, !llvm.loop !8

.critedge:                                        ; preds = %.loopexit, %23
  ret i64 %.2
}